#include <math.h>
#include <stdio.h>
#include <stdlib.h>
#include <string.h>

int main()
{
	int i,a,c,m=0;
	int n,k;
	scanf("%d%d",&n,&k);
	i=n;
	a=n-1;
	c=1;
	while(i>0)
	{
		if(a%(n-1)==0)
		{
			m=(a/(n-1)*n)+k;
			a=m;
			i--;
		}
		else
		{
			c++;
			m=0;
			a=c*(n-1);
			i=n;
		}
	}
	printf("%d\n",m);
	return 0;
}