; ModuleID = '54/1339.c'
source_filename = "54/1339.c"
target datalayout = "e-m:e-p270:32:32-p271:32:32-p272:64:64-i64:64-f80:128-n8:16:32:64-S128"
target triple = "x86_64-pc-linux-gnu"

@.str = private unnamed_addr constant [5 x i8] c"%d%d\00", align 1
@.str.1 = private unnamed_addr constant [4 x i8] c"%d\0A\00", align 1

; Function Attrs: noinline nounwind uwtable
define dso_local i32 @main() #0 {
  %1 = alloca i32, align 4
  %2 = alloca i32, align 4
  %3 = alloca i32, align 4
  %4 = alloca i32, align 4
  %5 = alloca i32, align 4
  %6 = alloca i32, align 4
  %7 = alloca i32, align 4
  store i32 0, i32* %1, align 4
  store i32 0, i32* %5, align 4
  %8 = call i32 (i8*, ...) @__isoc99_scanf(i8* getelementptr inbounds ([5 x i8], [5 x i8]* @.str, i64 0, i64 0), i32* %6, i32* %7)
  %9 = load i32, i32* %6, align 4
  store i32 %9, i32* %2, align 4
  %10 = load i32, i32* %6, align 4
  %11 = sub nsw i32 %10, 1
  store i32 %11, i32* %3, align 4
  store i32 1, i32* %4, align 4
  br label %12

12:                                               ; preds = %41, %0
  %13 = load i32, i32* %2, align 4
  %14 = icmp sgt i32 %13, 0
  br i1 %14, label %15, label %42

15:                                               ; preds = %12
  %16 = load i32, i32* %3, align 4
  %17 = load i32, i32* %6, align 4
  %18 = sub nsw i32 %17, 1
  %19 = srem i32 %16, %18
  %20 = icmp eq i32 %19, 0
  br i1 %20, label %21, label %33

21:                                               ; preds = %15
  %22 = load i32, i32* %3, align 4
  %23 = load i32, i32* %6, align 4
  %24 = sub nsw i32 %23, 1
  %25 = sdiv i32 %22, %24
  %26 = load i32, i32* %6, align 4
  %27 = mul nsw i32 %25, %26
  %28 = load i32, i32* %7, align 4
  %29 = add nsw i32 %27, %28
  store i32 %29, i32* %5, align 4
  %30 = load i32, i32* %5, align 4
  store i32 %30, i32* %3, align 4
  %31 = load i32, i32* %2, align 4
  %32 = add nsw i32 %31, -1
  store i32 %32, i32* %2, align 4
  br label %41

33:                                               ; preds = %15
  %34 = load i32, i32* %4, align 4
  %35 = add nsw i32 %34, 1
  store i32 %35, i32* %4, align 4
  store i32 0, i32* %5, align 4
  %36 = load i32, i32* %4, align 4
  %37 = load i32, i32* %6, align 4
  %38 = sub nsw i32 %37, 1
  %39 = mul nsw i32 %36, %38
  store i32 %39, i32* %3, align 4
  %40 = load i32, i32* %6, align 4
  store i32 %40, i32* %2, align 4
  br label %41

41:                                               ; preds = %33, %21
  br label %12

42:                                               ; preds = %12
  %43 = load i32, i32* %5, align 4
  %44 = call i32 (i8*, ...) @printf(i8* getelementptr inbounds ([4 x i8], [4 x i8]* @.str.1, i64 0, i64 0), i32 %43)
  ret i32 0
}

declare dso_local i32 @__isoc99_scanf(i8*, ...) #1

declare dso_local i32 @printf(i8*, ...) #1


!llvm.module.flags = !{!0}
!llvm.ident = !{!1}

!0 = !{i32 1, !"wchar_size", i32 4}
!1 = !{!"clang version 10.0.0-4ubuntu1 "}
