; ModuleID = 'source-C-CXX/53/1339.c'
source_filename = "source-C-CXX/53/1339.c"
target datalayout = "e-m:e-p270:32:32-p271:32:32-p272:64:64-i64:64-f80:128-n8:16:32:64-S128"
target triple = "x86_64-pc-linux-gnu"

@.str = private unnamed_addr constant [5 x i8] c"%d%d\00", align 1
@.str.1 = private unnamed_addr constant [4 x i8] c"%d\0A\00", align 1

; Function Attrs: nofree nounwind sspstrong uwtable
define dso_local i32 @main() local_unnamed_addr #0 {
  %1 = alloca i32, align 4
  %2 = alloca i32, align 4
  %3 = bitcast i32* %1 to i8*
  call void @llvm.lifetime.start.p0i8(i64 4, i8* nonnull %3) #3
  %4 = bitcast i32* %2 to i8*
  call void @llvm.lifetime.start.p0i8(i64 4, i8* nonnull %4) #3
  %5 = call i32 (i8*, ...) @__isoc99_scanf(i8* getelementptr inbounds ([5 x i8], [5 x i8]* @.str, i64 0, i64 0), i32* nonnull %1, i32* nonnull %2)
  %6 = load i32, i32* %1, align 4, !tbaa !5
  %7 = add nsw i32 %6, -1
  %8 = load i32, i32* %2, align 4
  %9 = icmp sgt i32 %6, 0
  br i1 %9, label %10, label %30

10:                                               ; preds = %0, %24
  %11 = phi i32 [ %27, %24 ], [ 1, %0 ]
  %12 = phi i32 [ %26, %24 ], [ %7, %0 ]
  %13 = phi i32 [ %25, %24 ], [ %6, %0 ]
  %14 = srem i32 %12, %7
  %15 = sdiv i32 %12, %7
  %16 = icmp eq i32 %14, 0
  br i1 %16, label %17, label %21

17:                                               ; preds = %10
  %18 = mul nsw i32 %15, %6
  %19 = add nsw i32 %18, %8
  %20 = add nsw i32 %13, -1
  br label %24

21:                                               ; preds = %10
  %22 = add nsw i32 %11, 1
  %23 = mul nsw i32 %22, %7
  br label %24

24:                                               ; preds = %21, %17
  %25 = phi i32 [ %20, %17 ], [ %6, %21 ]
  %26 = phi i32 [ %19, %17 ], [ %23, %21 ]
  %27 = phi i32 [ %11, %17 ], [ %22, %21 ]
  %28 = phi i32 [ %19, %17 ], [ 0, %21 ]
  %29 = icmp sgt i32 %25, 0
  br i1 %29, label %10, label %30, !llvm.loop !9

30:                                               ; preds = %24, %0
  %31 = phi i32 [ 0, %0 ], [ %28, %24 ]
  %32 = call i32 (i8*, ...) @printf(i8* nonnull dereferenceable(1) getelementptr inbounds ([4 x i8], [4 x i8]* @.str.1, i64 0, i64 0), i32 %31)
  call void @llvm.lifetime.end.p0i8(i64 4, i8* nonnull %4) #3
  call void @llvm.lifetime.end.p0i8(i64 4, i8* nonnull %3) #3
  ret i32 0
}

; Function Attrs: argmemonly mustprogress nofree nosync nounwind willreturn
declare void @llvm.lifetime.start.p0i8(i64 immarg, i8* nocapture) #1

; Function Attrs: nofree nounwind
declare noundef i32 @__isoc99_scanf(i8* nocapture noundef readonly, ...) local_unnamed_addr #2

; Function Attrs: nofree nounwind
declare noundef i32 @printf(i8* nocapture noundef readonly, ...) local_unnamed_addr #2

; Function Attrs: argmemonly mustprogress nofree nosync nounwind willreturn
declare void @llvm.lifetime.end.p0i8(i64 immarg, i8* nocapture) #1


!llvm.module.flags = !{!0, !1, !2, !3}
!llvm.ident = !{!4}

!0 = !{i32 1, !"wchar_size", i32 4}
!1 = !{i32 7, !"PIC Level", i32 2}
!2 = !{i32 7, !"PIE Level", i32 2}
!3 = !{i32 7, !"uwtable", i32 1}
!4 = !{!"clang version 13.0.0"}
!5 = !{!6, !6, i64 0}
!6 = !{!"int", !7, i64 0}
!7 = !{!"omnipotent char", !8, i64 0}
!8 = !{!"Simple C/C++ TBAA"}
!9 = distinct !{!9, !10}
!10 = !{!"llvm.loop.mustprogress"}
